target datalayout = "e-m:e-p270:32:32-p271:32:32-p272:64:64-i64:64-i128:128-f80:128-n8:16:32:64-S128"
target triple = "x86_64-pc-linux-gnu"

%struct.redisServer = type { i32, i64, ptr, ptr, ptr, i32, i32, i32, i32, i32, ptr, ptr, ptr, ptr, ptr, i32, i32, i32, i32, i64, i32, i32, i32, i32, ptr, i32, i32, [41 x i8], i32, i64, i32, i32, i32, ptr, ptr, i32, i32, i64, ptr, ptr, ptr, ptr, [2 x i32], i32, i32, i32, i32, i32, i32, [16 x ptr], i32, ptr, ptr, i32, [8 x %struct.connListener], i32, %struct.connListener, ptr, ptr, ptr, ptr, ptr, ptr, ptr, ptr, ptr, ptr, i32, ptr, i32, ptr, [3 x %struct.pause_event], [256 x i8], ptr, i64, i32, i32, [128 x i32], i32, i32, i64, i32, i32, i32, i32, i32, i64, i64, i64, i64, i64, i64, i64, i64, i64, i64, double, i64, i64, i64, i64, i64, i64, i64, i64, i64, i64, i64, i64, i64, i64, i64, i64, i64, i64, i64, i64, i64, double, i64, i64, i64, i64, i64, ptr, i64, i64, i64, %struct.malloc_stats, i64, i64, i64, i64, i64, i64, i64, i64, i64, i64, i64, i64, double, [4 x i64], i64, i64, i64, i64, [128 x i64], [128 x i64], i64, i64, [7 x %struct.anon], i64, i64, i64, i64, i64, i64, [4 x %struct.durationStats], i32, i32, i32, i32, i32, i32, i32, i32, i32, i32, i32, i32, i64, i32, i32, i32, i32, i64, i64, i32, i32, i32, i32, i32, ptr, [3 x %struct.clientBufferLimitsConfig], i32, i32, i32, ptr, i32, i32, i32, i32, i32, i32, ptr, ptr, i32, i32, i64, i64, i64, i64, i64, i32, i32, ptr, i32, i32, i64, i64, i64, i64, i64, i32, i32, i64, i32, i32, i32, i32, i32, i32, i32, i32, ptr, i32, i64, i64, i64, i64, i32, ptr, i32, ptr, i32, i32, i32, i64, i64, i64, i64, i32, i32, i32, i32, i32, i32, ptr, i32, i32, ptr, i32, i32, i32, [2 x i32], i32, %struct.redisOpArray, i32, ptr, i32, ptr, i32, i32, i32, i32, i32, i32, i32, [41 x i8], [41 x i8], i64, i64, i64, i64, i32, i32, ptr, i64, i64, %struct.replDataBuf, i64, i64, i32, i32, i32, i32, i32, i32, i32, i32, i32, i64, ptr, i64, ptr, ptr, ptr, i32, i32, ptr, ptr, i32, i32, i32, i64, i64, i64, i64, ptr, ptr, i32, ptr, i64, i32, i32, i32, i64, i32, i32, i32, i32, ptr, i32, i32, [41 x i8], i64, i32, ptr, i32, i32, i64, i64, i32, i32, i32, i32, i32, i64, [3 x i32], i32, i32, i32, [10 x i32], ptr, ptr, i32, i64, ptr, ptr, i32, i32, i32, i32, i64, i64, i64, i64, i64, i64, i64, i64, i64, i64, i32, i32, i64, i64, i32, i64, i64, i64, i64, i64, ptr, ptr, i32, ptr, i32, i32, i32, i32, i64, i64, ptr, ptr, i32, i32, i32, i32, i32, ptr, ptr, ptr, i32, i32, i32, i32, i32, i32, i32, i64, i32, i32, i64, i32, i32, i32, i32, i32, i32, i32, i64, ptr, ptr, i64, ptr, i32, %struct.aclInfo, i32, i64, i32, i32, i32, %struct.redisTLSContextConfig, ptr, ptr, ptr, ptr, ptr, i64, i32, ptr, i32, i32, i32, i64, i32, ptr }
%struct.connListener = type { [16 x i32], i32, ptr, i32, i32, ptr, ptr }
%struct.pause_event = type { i32, i64 }
%struct.malloc_stats = type { i64, i64, i64, i64, i64, i64, i64, i64, i64, i64, i64 }
%struct.anon = type { i64, i64, [16 x i64], i32 }
%struct.durationStats = type { i64, i64, i64 }
%struct.clientBufferLimitsConfig = type { i64, i64, i64 }
%struct.redisOpArray = type { ptr, i32, i32 }
%struct.replDataBuf = type { ptr, i64, i64, i64, i64 }
%struct.aclInfo = type { i64, i64, i64, i64 }
%struct.redisTLSContextConfig = type { ptr, ptr, ptr, ptr, ptr, ptr, ptr, ptr, ptr, ptr, ptr, ptr, i32, i32, i32, i32 }

@server = external global %struct.redisServer, align 8
@.str.51 = private unnamed_addr constant [72 x i8] c"malicious code trying to call luaNewIndexAllowList with wrong arguments\00", align 1
@.str.52 = private unnamed_addr constant [50 x i8] c"Wrong number of arguments to luaNewIndexAllowList\00", align 1
@.str.53 = private unnamed_addr constant [55 x i8] c"first argument to luaNewIndexAllowList must be a table\00", align 1
@.str.54 = private unnamed_addr constant [67 x i8] c"Second argument to luaNewIndexAllowList must be a string or number\00", align 1
@allow_lists = internal global [6 x ptr] [ptr @libraries_allow_list, ptr @redis_api_allow_list, ptr @lua_builtins_allow_list, ptr @lua_builtins_not_documented_allow_list, ptr @lua_builtins_removed_after_initialization_allow_list, ptr null], align 16
@deny_list = internal global [4 x ptr] [ptr @.str.91, ptr @.str.92, ptr @.str.93, ptr null], align 16
@.str.55 = private unnamed_addr constant [104 x i8] c"A key '%s' was added to Lua globals which is not on the globals allow list nor listed on the deny list.\00", align 1

; Function Attrs: nounwind uwtable
define internal i32 @luaNewIndexAllowList(ptr noundef %0) #0 {
  %2 = alloca ptr, align 8
  %3 = alloca i32, align 4
  %4 = alloca ptr, align 8
  %5 = alloca ptr, align 8
  %6 = alloca ptr, align 8
  %7 = alloca i32, align 4
  %8 = alloca ptr, align 8
  store ptr %0, ptr %2, align 8, !tbaa !5
  call void @llvm.lifetime.start.p0(i64 4, ptr %3) #12
  %9 = load ptr, ptr %2, align 8, !tbaa !5
  %10 = call i32 @lua_gettop(ptr noundef %9)
  store i32 %10, ptr %3, align 4, !tbaa !16
  %11 = load i32, ptr %3, align 4, !tbaa !16
  %12 = icmp ne i32 %11, 3
  br i1 %12, label %13, label %23

13:                                               ; preds = %1
  br label %14

14:                                               ; preds = %13
  %15 = load i32, ptr getelementptr inbounds nuw (%struct.redisServer, ptr @server, i32 0, i32 159), align 8, !tbaa !29
  %16 = icmp slt i32 3, %15
  br i1 %16, label %17, label %18

17:                                               ; preds = %14
  br label %20

18:                                               ; preds = %14
  call void (i32, ptr, ...) @_serverLog(i32 noundef 3, ptr noundef @.str.51)
  br label %19

19:                                               ; preds = %18
  br label %20

20:                                               ; preds = %19, %17
  %21 = load ptr, ptr %2, align 8, !tbaa !5
  %22 = call i32 (ptr, ptr, ...) @luaL_error(ptr noundef %21, ptr noundef @.str.52)
  br label %23

23:                                               ; preds = %20, %1
  %24 = load ptr, ptr %2, align 8, !tbaa !5
  %25 = call i32 @lua_type(ptr noundef %24, i32 noundef -3)
  %26 = icmp eq i32 %25, 5
  br i1 %26, label %30, label %27

27:                                               ; preds = %23
  %28 = load ptr, ptr %2, align 8, !tbaa !5
  %29 = call i32 (ptr, ptr, ...) @luaL_error(ptr noundef %28, ptr noundef @.str.53)
  br label %30

30:                                               ; preds = %27, %23
  %31 = load ptr, ptr %2, align 8, !tbaa !5
  %32 = call i32 @lua_isstring(ptr noundef %31, i32 noundef -2)
  %33 = icmp ne i32 %32, 0
  br i1 %33, label %41, label %34

34:                                               ; preds = %30
  %35 = load ptr, ptr %2, align 8, !tbaa !5
  %36 = call i32 @lua_isnumber(ptr noundef %35, i32 noundef -2)
  %37 = icmp ne i32 %36, 0
  br i1 %37, label %41, label %38

38:                                               ; preds = %34
  %39 = load ptr, ptr %2, align 8, !tbaa !5
  %40 = call i32 (ptr, ptr, ...) @luaL_error(ptr noundef %39, ptr noundef @.str.54)
  br label %41

41:                                               ; preds = %38, %34, %30
  call void @llvm.lifetime.start.p0(i64 8, ptr %4) #12
  %42 = load ptr, ptr %2, align 8, !tbaa !5
  %43 = call ptr @lua_tolstring(ptr noundef %42, i32 noundef -2, ptr noundef null)
  store ptr %43, ptr %4, align 8, !tbaa !10
  call void @llvm.lifetime.start.p0(i64 8, ptr %5) #12
  store ptr @allow_lists, ptr %5, align 8, !tbaa !56
  br label %44

44:                                               ; preds = %75, %41
  %45 = load ptr, ptr %5, align 8, !tbaa !56
  %46 = load ptr, ptr %45, align 8, !tbaa !58
  %47 = icmp ne ptr %46, null
  br i1 %47, label %48, label %78

48:                                               ; preds = %44
  call void @llvm.lifetime.start.p0(i64 8, ptr %6) #12
  %49 = load ptr, ptr %5, align 8, !tbaa !56
  %50 = load ptr, ptr %49, align 8, !tbaa !58
  store ptr %50, ptr %6, align 8, !tbaa !58
  br label %51

51:                                               ; preds = %63, %48
  %52 = load ptr, ptr %6, align 8, !tbaa !58
  %53 = load ptr, ptr %52, align 8, !tbaa !10
  %54 = icmp ne ptr %53, null
  br i1 %54, label %55, label %66

55:                                               ; preds = %51
  %56 = load ptr, ptr %6, align 8, !tbaa !58
  %57 = load ptr, ptr %56, align 8, !tbaa !10
  %58 = load ptr, ptr %4, align 8, !tbaa !10
  %59 = call i32 @strcmp(ptr noundef %57, ptr noundef %58) #13
  %60 = icmp eq i32 %59, 0
  br i1 %60, label %61, label %62

61:                                               ; preds = %55
  br label %66

62:                                               ; preds = %55
  br label %63

63:                                               ; preds = %62
  %64 = load ptr, ptr %6, align 8, !tbaa !58
  %65 = getelementptr inbounds nuw ptr, ptr %64, i32 1
  store ptr %65, ptr %6, align 8, !tbaa !58
  br label %51, !llvm.loop !59

66:                                               ; preds = %61, %51
  %67 = load ptr, ptr %6, align 8, !tbaa !58
  %68 = load ptr, ptr %67, align 8, !tbaa !10
  %69 = icmp ne ptr %68, null
  br i1 %69, label %70, label %71

70:                                               ; preds = %66
  store i32 4, ptr %7, align 4
  br label %72

71:                                               ; preds = %66
  store i32 0, ptr %7, align 4
  br label %72

72:                                               ; preds = %71, %70
  call void @llvm.lifetime.end.p0(i64 8, ptr %6) #12
  %73 = load i32, ptr %7, align 4
  switch i32 %73, label %115 [
    i32 0, label %74
    i32 4, label %78
  ]

74:                                               ; preds = %72
  br label %75

75:                                               ; preds = %74
  %76 = load ptr, ptr %5, align 8, !tbaa !56
  %77 = getelementptr inbounds nuw ptr, ptr %76, i32 1
  store ptr %77, ptr %5, align 8, !tbaa !56
  br label %44, !llvm.loop !60

78:                                               ; preds = %72, %44
  %79 = load ptr, ptr %5, align 8, !tbaa !56
  %80 = load ptr, ptr %79, align 8, !tbaa !58
  %81 = icmp ne ptr %80, null
  br i1 %81, label %112, label %82

82:                                               ; preds = %78
  call void @llvm.lifetime.start.p0(i64 8, ptr %8) #12
  store ptr @deny_list, ptr %8, align 8, !tbaa !58
  br label %83

83:                                               ; preds = %95, %82
  %84 = load ptr, ptr %8, align 8, !tbaa !58
  %85 = load ptr, ptr %84, align 8, !tbaa !10
  %86 = icmp ne ptr %85, null
  br i1 %86, label %87, label %98

87:                                               ; preds = %83
  %88 = load ptr, ptr %8, align 8, !tbaa !58
  %89 = load ptr, ptr %88, align 8, !tbaa !10
  %90 = load ptr, ptr %4, align 8, !tbaa !10
  %91 = call i32 @strcmp(ptr noundef %89, ptr noundef %90) #13
  %92 = icmp eq i32 %91, 0
  br i1 %92, label %93, label %94

93:                                               ; preds = %87
  br label %98

94:                                               ; preds = %87
  br label %95

95:                                               ; preds = %94
  %96 = load ptr, ptr %8, align 8, !tbaa !58
  %97 = getelementptr inbounds nuw ptr, ptr %96, i32 1
  store ptr %97, ptr %8, align 8, !tbaa !58
  br label %83, !llvm.loop !61

98:                                               ; preds = %93, %83
  %99 = load ptr, ptr %8, align 8, !tbaa !58
  %100 = load ptr, ptr %99, align 8, !tbaa !10
  %101 = icmp ne ptr %100, null
  br i1 %101, label %111, label %102

102:                                              ; preds = %98
  br label %103

103:                                              ; preds = %102
  %104 = load i32, ptr getelementptr inbounds nuw (%struct.redisServer, ptr @server, i32 0, i32 159), align 8, !tbaa !29
  %105 = icmp slt i32 3, %104
  br i1 %105, label %106, label %107

106:                                              ; preds = %103
  br label %110

107:                                              ; preds = %103
  %108 = load ptr, ptr %4, align 8, !tbaa !10
  call void (i32, ptr, ...) @_serverLog(i32 noundef 3, ptr noundef @.str.55, ptr noundef %108)
  br label %109

109:                                              ; preds = %107
  br label %110

110:                                              ; preds = %109, %106
  br label %111

111:                                              ; preds = %110, %98
  call void @llvm.lifetime.end.p0(i64 8, ptr %8) #12
  br label %114

112:                                              ; preds = %78
  %113 = load ptr, ptr %2, align 8, !tbaa !5
  call void @lua_rawset(ptr noundef %113, i32 noundef -3)
  br label %114

114:                                              ; preds = %112, %111
  store i32 1, ptr %7, align 4
  call void @llvm.lifetime.end.p0(i64 8, ptr %5) #12
  call void @llvm.lifetime.end.p0(i64 8, ptr %4) #12
  call void @llvm.lifetime.end.p0(i64 4, ptr %3) #12
  ret i32 0

115:                                              ; preds = %72
  unreachable
}