; Function Attrs: nounwind uwtable
define internal noundef i32 @luaNewIndexAllowList(ptr noundef %0) #0 {
  %2 = tail call i32 @lua_gettop(ptr noundef %0) #11
  %.not = icmp eq i32 %2, 3
  br i1 %.not, label %9, label %3

3:                                                ; preds = %1
  %4 = load i32, ptr getelementptr inbounds nuw (i8, ptr @server, i64 6288), align 8, !tbaa !26
  %5 = icmp sgt i32 %4, 3
  br i1 %5, label %7, label %6

6:                                                ; preds = %3
  tail call void (i32, ptr, ...) @_serverLog(i32 noundef 3, ptr noundef nonnull @.str.51) #11
  br label %7

7:                                                ; preds = %3, %6
  %8 = tail call i32 (ptr, ptr, ...) @luaL_error(ptr noundef %0, ptr noundef nonnull @.str.52) #11
  br label %9

9:                                                ; preds = %7, %1
  %10 = tail call i32 @lua_type(ptr noundef %0, i32 noundef -3) #11
  %11 = icmp eq i32 %10, 5
  br i1 %11, label %14, label %12

12:                                               ; preds = %9
  %13 = tail call i32 (ptr, ptr, ...) @luaL_error(ptr noundef %0, ptr noundef nonnull @.str.53) #11
  br label %14

14:                                               ; preds = %12, %9
  %15 = tail call i32 @lua_isstring(ptr noundef %0, i32 noundef -2) #11
  %.not32 = icmp eq i32 %15, 0
  br i1 %.not32, label %16, label %20

16:                                               ; preds = %14
  %17 = tail call i32 @lua_isnumber(ptr noundef %0, i32 noundef -2) #11
  %.not33 = icmp eq i32 %17, 0
  br i1 %.not33, label %18, label %20

18:                                               ; preds = %16
  %19 = tail call i32 (ptr, ptr, ...) @luaL_error(ptr noundef %0, ptr noundef nonnull @.str.54) #11
  br label %20

20:                                               ; preds = %18, %16, %14
  %21 = tail call ptr @lua_tolstring(ptr noundef %0, i32 noundef -2, ptr noundef null) #11
  br label %.preheader

.preheader:                                       ; preds = %20, %._crit_edge
  %22 = phi ptr [ @libraries_allow_list, %20 ], [ %31, %._crit_edge ]
  %.02843 = phi ptr [ @allow_lists, %20 ], [ %30, %._crit_edge ]
  %23 = load ptr, ptr %22, align 8, !tbaa !54
  %.not3541 = icmp eq ptr %23, null
  br i1 %.not3541, label %._crit_edge, label %.lr.ph

24:                                               ; preds = %.lr.ph
  %25 = getelementptr inbounds nuw i8, ptr %.02742, i64 8
  %26 = load ptr, ptr %25, align 8, !tbaa !54
  %.not35 = icmp eq ptr %26, null
  br i1 %.not35, label %._crit_edge, label %.lr.ph, !llvm.loop !55

.lr.ph:                                           ; preds = %.preheader, %24
  %27 = phi ptr [ %26, %24 ], [ %23, %.preheader ]
  %.02742 = phi ptr [ %25, %24 ], [ %22, %.preheader ]
  %28 = tail call i32 @strcmp(ptr noundef nonnull dereferenceable(1) %27, ptr noundef nonnull dereferenceable(1) %21) #13
  %29 = icmp eq i32 %28, 0
  br i1 %29, label %41, label %24

._crit_edge:                                      ; preds = %24, %.preheader
  %30 = getelementptr inbounds nuw i8, ptr %.02843, i64 8
  %31 = load ptr, ptr %30, align 8, !tbaa !56
  %.not34 = icmp eq ptr %31, null
  br i1 %.not34, label %.critedge.preheader, label %.preheader, !llvm.loop !57

.critedge:                                        ; preds = %.critedge.preheader
  %32 = getelementptr inbounds nuw i8, ptr %.044, i64 8
  %33 = load ptr, ptr %32, align 8, !tbaa !54
  %.not38 = icmp eq ptr %33, null
  br i1 %.not38, label %37, label %.critedge.preheader, !llvm.loop !58

.critedge.preheader:                              ; preds = %._crit_edge, %.critedge
  %34 = phi ptr [ %33, %.critedge ], [ @.str.91, %._crit_edge ]
  %.044 = phi ptr [ %32, %.critedge ], [ @deny_list, %._crit_edge ]
  %35 = tail call i32 @strcmp(ptr noundef nonnull dereferenceable(1) %34, ptr noundef nonnull dereferenceable(1) %21) #13
  %36 = icmp eq i32 %35, 0
  br i1 %36, label %.thread39, label %.critedge

37:                                               ; preds = %.critedge
  %38 = load i32, ptr getelementptr inbounds nuw (i8, ptr @server, i64 6288), align 8
  %39 = icmp sgt i32 %38, 3
  br i1 %39, label %.thread39, label %40

40:                                               ; preds = %37
  tail call void (i32, ptr, ...) @_serverLog(i32 noundef 3, ptr noundef nonnull @.str.55, ptr noundef nonnull %21) #11
  br label %.thread39

41:                                               ; preds = %.lr.ph
  tail call void @lua_rawset(ptr noundef %0, i32 noundef -3) #11
  br label %.thread39

.thread39:                                        ; preds = %.critedge.preheader, %37, %40, %41
  ret i32 0
}